; Function Attrs: nounwind uwtable
define internal void @imm5_flush(ptr noundef readonly captures(none) %0) #1 {
  %2 = getelementptr inbounds nuw i8, ptr %0, i64 32
  %3 = load ptr, ptr %2, align 8, !tbaa !4
  %4 = load ptr, ptr %3, align 8, !tbaa !27
  tail call void @avcodec_flush_buffers(ptr noundef %4) #5
  %5 = getelementptr inbounds nuw i8, ptr %3, i64 8
  %6 = load ptr, ptr %5, align 8, !tbaa !33
  tail call void @avcodec_flush_buffers(ptr noundef %6) #5
  ret void
}